(lp0
S'poi'
p1
aS'salary'
p2
aS'bonus'
p3
aS'exercised_stock_options'
p4
aS'total_stock_value'
p5
ag2
aS'deferral_payments'
p6
aS'total_payments'
p7
aS'loan_advances'
p8
ag3
aS'restricted_stock_deferred'
p9
aS'deferred_income'
p10
ag5
aS'expenses'
p11
ag4
aS'other'
p12
aS'long_term_incentive'
p13
aS'restricted_stock'
p14
aS'director_fees'
p15
aS'to_messages'
p16
aS'from_poi_to_this_person'
p17
aS'from_messages'
p18
aS'from_this_person_to_poi'
p19
aS'shared_receipt_with_poi'
p20
a.